#include <math.h>
#include <stdio.h>
#include <stdlib.h>
#include <string.h>

int main()
{
    char b[256],a[256],c[256];
    int m,n,i,j,d;
    scanf("%s",a);
    scanf("%s",b);
    scanf("%s",c);
    m=strlen(a);
    n=strlen(b);
    for(i=0;i<m;i++)
    {
                    d=1;
                    for(j=0;j<n;j++)
                    {
                                    if(b[j]!=a[j+i])
                                    d=0;
                                    }
                    if(d==1)
                  {  for(j=0;j<n;j++)
                    {a[i+j]=c[j];
                                    }
                                    break;}
                    
                    }
                  
   printf("%s",a);
    
                      getchar(); getchar(); getchar(); getchar(); getchar(); getchar(); getchar();
                          getchar(); getchar(); getchar(); getchar(); getchar(); getchar(); getchar();
                              getchar(); getchar(); getchar(); getchar(); getchar(); getchar(); getchar();
}